; Function Attrs: mustprogress nounwind uwtable
define internal fastcc noundef ptr @_ZL16get_module_entry6HandleP10JavaThread(ptr readonly %0, ptr noundef %1) unnamed_addr #0 {
  %3 = icmp eq ptr %0, null
  br i1 %3, label %_ZN16java_lang_Module11is_instanceEP7oopDesc.exit.thread, label %_ZNK6HandleclEv.exit

_ZNK6HandleclEv.exit:                             ; preds = %2
  %4 = load ptr, ptr %0, align 8
  %.not.i = icmp eq ptr %4, null
  br i1 %.not.i, label %_ZN16java_lang_Module11is_instanceEP7oopDesc.exit.thread, label %5

5:                                                ; preds = %_ZNK6HandleclEv.exit
  %6 = load i8, ptr @UseCompressedClassPointers, align 1
  %7 = trunc i8 %6 to i1
  %8 = getelementptr inbounds i8, ptr %4, i64 8
  br i1 %7, label %9, label %19

9:                                                ; preds = %5
  %10 = load i32, ptr %8, align 8
  %11 = load ptr, ptr @_ZN23CompressedKlassPointers5_baseE, align 8
  %12 = load i32, ptr @_ZN23CompressedKlassPointers6_shiftE, align 4
  %13 = ptrtoint ptr %11 to i64
  %14 = zext i32 %10 to i64
  %15 = zext nneg i32 %12 to i64
  %16 = shl i64 %14, %15
  %17 = add i64 %16, %13
  %18 = inttoptr i64 %17 to ptr
  br label %_ZN16java_lang_Module11is_instanceEP7oopDesc.exit

19:                                               ; preds = %5
  %20 = load ptr, ptr %8, align 8
  br label %_ZN16java_lang_Module11is_instanceEP7oopDesc.exit

_ZN16java_lang_Module11is_instanceEP7oopDesc.exit: ; preds = %9, %19
  %.0.i.i = phi ptr [ %18, %9 ], [ %20, %19 ]
  %21 = load ptr, ptr getelementptr inbounds (i8, ptr @_ZN9vmClasses8_klassesE, i64 328), align 8
  %22 = icmp eq ptr %.0.i.i, %21
  br i1 %22, label %_ZNK6HandleclEv.exit2, label %_ZN16java_lang_Module11is_instanceEP7oopDesc.exit.thread

_ZN16java_lang_Module11is_instanceEP7oopDesc.exit.thread: ; preds = %2, %_ZNK6HandleclEv.exit, %_ZN16java_lang_Module11is_instanceEP7oopDesc.exit
  %23 = load ptr, ptr getelementptr inbounds (i8, ptr @_ZN6Symbol11_vm_symbolsE, i64 1104), align 8
  tail call void @_ZN10Exceptions10_throw_msgEP10JavaThreadPKciP6SymbolS3_(ptr noundef %1, ptr noundef nonnull @.str, i32 noundef 109, ptr noundef %23, ptr noundef nonnull @.str.5) #13
  br label %25

_ZNK6HandleclEv.exit2:                            ; preds = %_ZN16java_lang_Module11is_instanceEP7oopDesc.exit
  %24 = tail call noundef ptr @_ZN16java_lang_Module12module_entryEP7oopDesc(ptr noundef nonnull %4) #13
  br label %25

25:                                               ; preds = %_ZNK6HandleclEv.exit2, %_ZN16java_lang_Module11is_instanceEP7oopDesc.exit.thread
  %.0 = phi ptr [ %24, %_ZNK6HandleclEv.exit2 ], [ null, %_ZN16java_lang_Module11is_instanceEP7oopDesc.exit.thread ]
  ret ptr %.0
}